; Function Attrs: mustprogress nofree norecurse nounwind willreturn memory(argmem: readwrite) uwtable
define void @_ZN6icu_779SpoofDataC2EPKviR10UErrorCode(ptr noundef nonnull writeonly align 8 captures(none) dereferenceable(56) initializes((0, 9), (16, 28)) %0, ptr noundef %1, i32 noundef %2, ptr noundef nonnull align 4 captures(none) dereferenceable(4) %3) unnamed_addr #5 align 2 {
  store ptr null, ptr %0, align 8, !tbaa !29
  %5 = getelementptr inbounds nuw i8, ptr %0, i64 8
  store i8 0, ptr %5, align 8, !tbaa !73
  %6 = getelementptr inbounds nuw i8, ptr %0, i64 16
  store ptr null, ptr %6, align 8, !tbaa !74
  %7 = getelementptr inbounds nuw i8, ptr %0, i64 24
  store i32 0, ptr %7, align 8, !tbaa !75
  %8 = getelementptr inbounds nuw i8, ptr %0, i64 28
  store atomic i32 1, ptr %8 seq_cst, align 4
  %9 = getelementptr inbounds nuw i8, ptr %0, i64 32
  tail call void @llvm.memset.p0.i64(ptr noundef nonnull align 8 dereferenceable(24) %9, i8 0, i64 24, i1 false)
  %10 = load i32, ptr %3, align 4, !tbaa !19
  %11 = icmp slt i32 %10, 1
  br i1 %11, label %12, label %_ZN6icu_779SpoofData8initPtrsER10UErrorCode.exit

12:                                               ; preds = %4
  %13 = icmp ult i32 %2, 96
  br i1 %13, label %14, label %15

14:                                               ; preds = %12
  store i32 3, ptr %3, align 4, !tbaa !19
  br label %_ZN6icu_779SpoofData8initPtrsER10UErrorCode.exit

15:                                               ; preds = %12
  %16 = icmp eq ptr %1, null
  br i1 %16, label %17, label %18

17:                                               ; preds = %15
  store i32 1, ptr %3, align 4, !tbaa !19
  br label %_ZN6icu_779SpoofData8initPtrsER10UErrorCode.exit

18:                                               ; preds = %15
  store ptr %1, ptr %0, align 8, !tbaa !29
  %19 = getelementptr inbounds nuw i8, ptr %1, i64 8
  %20 = load i32, ptr %19, align 4, !tbaa !79
  %21 = icmp slt i32 %2, %20
  br i1 %21, label %22, label %23

22:                                               ; preds = %18
  store i32 3, ptr %3, align 4, !tbaa !19
  br label %_ZN6icu_779SpoofData8initPtrsER10UErrorCode.exit

23:                                               ; preds = %18
  %24 = load i32, ptr %1, align 4, !tbaa !36
  %.not4.i = icmp eq i32 %24, 944111087
  br i1 %.not4.i, label %25, label %37

25:                                               ; preds = %23
  %26 = getelementptr inbounds nuw i8, ptr %1, i64 4
  %27 = load i8, ptr %26, align 4, !tbaa !38
  %.not5.i = icmp eq i8 %27, 2
  br i1 %.not5.i, label %28, label %37

28:                                               ; preds = %25
  %29 = getelementptr inbounds nuw i8, ptr %1, i64 5
  %30 = load i8, ptr %29, align 1, !tbaa !38
  %.not6.i = icmp eq i8 %30, 0
  br i1 %.not6.i, label %31, label %37

31:                                               ; preds = %28
  %32 = getelementptr inbounds nuw i8, ptr %1, i64 6
  %33 = load i8, ptr %32, align 2, !tbaa !38
  %.not7.i = icmp eq i8 %33, 0
  br i1 %.not7.i, label %34, label %37

34:                                               ; preds = %31
  %35 = getelementptr inbounds nuw i8, ptr %1, i64 7
  %36 = load i8, ptr %35, align 1, !tbaa !38
  %.not8.i = icmp eq i8 %36, 0
  br i1 %.not8.i, label %_ZNK6icu_779SpoofData19validateDataVersionER10UErrorCode.exit, label %37

37:                                               ; preds = %34, %31, %28, %25, %23
  store i32 3, ptr %3, align 4, !tbaa !19
  br label %_ZNK6icu_779SpoofData19validateDataVersionER10UErrorCode.exit

_ZNK6icu_779SpoofData19validateDataVersionER10UErrorCode.exit: ; preds = %34, %37
  %38 = getelementptr inbounds nuw i8, ptr %0, i64 40
  %39 = getelementptr inbounds nuw i8, ptr %0, i64 48
  tail call void @llvm.memset.p0.i64(ptr noundef nonnull align 8 dereferenceable(24) %9, i8 0, i64 24, i1 false)
  %40 = load i32, ptr %3, align 4, !tbaa !19
  %41 = icmp slt i32 %40, 1
  br i1 %41, label %42, label %_ZN6icu_779SpoofData8initPtrsER10UErrorCode.exit

42:                                               ; preds = %_ZNK6icu_779SpoofData19validateDataVersionER10UErrorCode.exit
  %43 = getelementptr inbounds nuw i8, ptr %1, i64 12
  %44 = load i32, ptr %43, align 4, !tbaa !76
  %.not4.i11 = icmp eq i32 %44, 0
  br i1 %.not4.i11, label %48, label %45

45:                                               ; preds = %42
  %46 = sext i32 %44 to i64
  %47 = getelementptr inbounds i8, ptr %1, i64 %46
  store ptr %47, ptr %9, align 8, !tbaa !52
  br label %48

48:                                               ; preds = %45, %42
  %49 = getelementptr inbounds nuw i8, ptr %1, i64 20
  %50 = load i32, ptr %49, align 4, !tbaa !77
  %.not5.i12 = icmp eq i32 %50, 0
  br i1 %.not5.i12, label %54, label %51

51:                                               ; preds = %48
  %52 = sext i32 %50 to i64
  %53 = getelementptr inbounds i8, ptr %1, i64 %52
  store ptr %53, ptr %38, align 8, !tbaa !55
  br label %54

54:                                               ; preds = %51, %48
  %55 = getelementptr inbounds nuw i8, ptr %1, i64 28
  %56 = load i32, ptr %55, align 4, !tbaa !78
  %.not6.i13 = icmp eq i32 %56, 0
  br i1 %.not6.i13, label %_ZN6icu_779SpoofData8initPtrsER10UErrorCode.exit, label %57

57:                                               ; preds = %54
  %58 = sext i32 %56 to i64
  %59 = getelementptr inbounds i8, ptr %1, i64 %58
  store ptr %59, ptr %39, align 8, !tbaa !58
  br label %_ZN6icu_779SpoofData8initPtrsER10UErrorCode.exit

_ZN6icu_779SpoofData8initPtrsER10UErrorCode.exit: ; preds = %57, %54, %_ZNK6icu_779SpoofData19validateDataVersionER10UErrorCode.exit, %22, %4, %17, %14
  ret void
}